; Function Attrs: nounwind uwtable
define range(i32 -1, 1) i32 @H5F__delete(ptr noundef %0, i64 noundef %1) local_unnamed_addr #0 {
  %3 = tail call i32 @H5FD_delete(ptr noundef %0, i64 noundef %1) #22
  %4 = icmp slt i32 %3, 0
  br i1 %4, label %5, label %9

5:                                                ; preds = %2
  %6 = load i64, ptr @H5E_FILE_g, align 8
  %7 = load i64, ptr @H5E_CANTDELETEFILE_g, align 8
  %8 = tail call i32 (ptr, ptr, i32, i64, i64, ptr, ...) @H5E_printf_stack(ptr noundef nonnull @.str.2, ptr noundef nonnull @__func__.H5F__delete, i32 noundef 2470, i64 noundef %6, i64 noundef %7, ptr noundef nonnull @.str.122) #22
  br label %9

9:                                                ; preds = %2, %5
  %.0 = phi i32 [ -1, %5 ], [ 0, %2 ]
  ret i32 %.0
}